target datalayout = "e-m:e-p270:32:32-p271:32:32-p272:64:64-i64:64-i128:128-f80:128-n8:16:32:64-S128"
target triple = "x86_64-pc-linux-gnu"

%struct._zend_refcounted_h = type { i32, %union.anon.4 }
%union.anon.4 = type { i32 }
%struct._zend_string = type { %struct._zend_refcounted_h, i64, i64, [1 x i8] }
%struct.smart_str = type { ptr, i64 }

; Function Attrs: nounwind uwtable
define ptr @zend_ast_export(ptr noundef %0, ptr noundef %1, ptr noundef %2) #0 {
  %4 = alloca ptr, align 8
  %5 = alloca i64, align 8
  %6 = alloca i8, align 1
  %7 = alloca ptr, align 8
  %8 = alloca i64, align 8
  %9 = alloca i8, align 1
  %10 = alloca ptr, align 8
  %11 = alloca ptr, align 8
  %12 = alloca i64, align 8
  %13 = alloca i8, align 1
  %14 = alloca i64, align 8
  %15 = alloca ptr, align 8
  %16 = alloca ptr, align 8
  %17 = alloca i64, align 8
  %18 = alloca i8, align 1
  %19 = alloca i64, align 8
  %20 = alloca ptr, align 8
  %21 = alloca ptr, align 8
  %22 = alloca ptr, align 8
  %23 = alloca ptr, align 8
  %24 = alloca ptr, align 8
  %25 = alloca ptr, align 8
  %26 = alloca ptr, align 8
  %27 = alloca ptr, align 8
  %28 = alloca %struct.smart_str, align 8
  store ptr %0, ptr %25, align 8
  store ptr %1, ptr %26, align 8
  store ptr %2, ptr %27, align 8
  call void @llvm.memset.p0.i64(ptr align 8 %28, i8 0, i64 16, i1 false)
  %29 = load ptr, ptr %25, align 8
  store ptr %28, ptr %21, align 8
  store ptr %29, ptr %22, align 8
  %30 = load ptr, ptr %21, align 8
  %31 = load ptr, ptr %22, align 8
  %32 = load ptr, ptr %22, align 8
  %33 = call i64 @strlen(ptr noundef %32) #14
  store ptr %30, ptr %15, align 8
  store ptr %31, ptr %16, align 8
  store i64 %33, ptr %17, align 8
  store i8 0, ptr %18, align 1
  %34 = load ptr, ptr %15, align 8
  %35 = load i64, ptr %17, align 8
  %36 = load i8, ptr %18, align 1
  %37 = trunc i8 %36 to i1
  store ptr %34, ptr %4, align 8
  store i64 %35, ptr %5, align 8
  %38 = zext i1 %37 to i8
  store i8 %38, ptr %6, align 1
  %39 = load ptr, ptr %4, align 8
  %40 = load ptr, ptr %39, align 8
  %41 = icmp ne ptr %40, null
  %42 = xor i1 %41, true
  br i1 %42, label %43, label %44

43:                                               ; preds = %3
  br label %57

44:                                               ; preds = %3
  %45 = load ptr, ptr %4, align 8
  %46 = load ptr, ptr %45, align 8
  %47 = getelementptr inbounds %struct._zend_string, ptr %46, i32 0, i32 2
  %48 = load i64, ptr %47, align 8
  %49 = load i64, ptr %5, align 8
  %50 = add i64 %49, %48
  store i64 %50, ptr %5, align 8
  %51 = load i64, ptr %5, align 8
  %52 = load ptr, ptr %4, align 8
  %53 = getelementptr inbounds %struct.smart_str, ptr %52, i32 0, i32 1
  %54 = load i64, ptr %53, align 8
  %55 = icmp uge i64 %51, %54
  br i1 %55, label %56, label %67

56:                                               ; preds = %44
  br label %57

57:                                               ; preds = %56, %43
  %58 = load i8, ptr %6, align 1
  %59 = trunc i8 %58 to i1
  br i1 %59, label %60, label %63

60:                                               ; preds = %57
  %61 = load ptr, ptr %4, align 8
  %62 = load i64, ptr %5, align 8
  call void @smart_str_realloc(ptr noundef %61, i64 noundef %62) #10
  br label %66

63:                                               ; preds = %57
  %64 = load ptr, ptr %4, align 8
  %65 = load i64, ptr %5, align 8
  call void @smart_str_erealloc(ptr noundef %64, i64 noundef %65) #10
  br label %66

66:                                               ; preds = %63, %60
  br label %67

67:                                               ; preds = %66, %44
  %68 = load i64, ptr %5, align 8
  store i64 %68, ptr %19, align 8
  %69 = load ptr, ptr %15, align 8
  %70 = load ptr, ptr %69, align 8
  %71 = getelementptr inbounds %struct._zend_string, ptr %70, i32 0, i32 3
  %72 = load ptr, ptr %15, align 8
  %73 = load ptr, ptr %72, align 8
  %74 = getelementptr inbounds %struct._zend_string, ptr %73, i32 0, i32 2
  %75 = load i64, ptr %74, align 8
  %76 = getelementptr inbounds i8, ptr %71, i64 %75
  %77 = load ptr, ptr %16, align 8
  %78 = load i64, ptr %17, align 8
  call void @llvm.memcpy.p0.p0.i64(ptr align 1 %76, ptr align 1 %77, i64 %78, i1 false)
  %79 = load i64, ptr %19, align 8
  %80 = load ptr, ptr %15, align 8
  %81 = load ptr, ptr %80, align 8
  %82 = getelementptr inbounds %struct._zend_string, ptr %81, i32 0, i32 2
  store i64 %79, ptr %82, align 8
  %83 = load ptr, ptr %26, align 8
  call void @zend_ast_export_ex(ptr noundef %28, ptr noundef %83, i32 noundef 0, i32 noundef 0)
  %84 = load ptr, ptr %27, align 8
  store ptr %28, ptr %23, align 8
  store ptr %84, ptr %24, align 8
  %85 = load ptr, ptr %23, align 8
  %86 = load ptr, ptr %24, align 8
  %87 = load ptr, ptr %24, align 8
  %88 = call i64 @strlen(ptr noundef %87) #14
  store ptr %85, ptr %10, align 8
  store ptr %86, ptr %11, align 8
  store i64 %88, ptr %12, align 8
  store i8 0, ptr %13, align 1
  %89 = load ptr, ptr %10, align 8
  %90 = load i64, ptr %12, align 8
  %91 = load i8, ptr %13, align 1
  %92 = trunc i8 %91 to i1
  store ptr %89, ptr %7, align 8
  store i64 %90, ptr %8, align 8
  %93 = zext i1 %92 to i8
  store i8 %93, ptr %9, align 1
  %94 = load ptr, ptr %7, align 8
  %95 = load ptr, ptr %94, align 8
  %96 = icmp ne ptr %95, null
  %97 = xor i1 %96, true
  br i1 %97, label %98, label %99

98:                                               ; preds = %67
  br label %112

99:                                               ; preds = %67
  %100 = load ptr, ptr %7, align 8
  %101 = load ptr, ptr %100, align 8
  %102 = getelementptr inbounds %struct._zend_string, ptr %101, i32 0, i32 2
  %103 = load i64, ptr %102, align 8
  %104 = load i64, ptr %8, align 8
  %105 = add i64 %104, %103
  store i64 %105, ptr %8, align 8
  %106 = load i64, ptr %8, align 8
  %107 = load ptr, ptr %7, align 8
  %108 = getelementptr inbounds %struct.smart_str, ptr %107, i32 0, i32 1
  %109 = load i64, ptr %108, align 8
  %110 = icmp uge i64 %106, %109
  br i1 %110, label %111, label %122

111:                                              ; preds = %99
  br label %112

112:                                              ; preds = %111, %98
  %113 = load i8, ptr %9, align 1
  %114 = trunc i8 %113 to i1
  br i1 %114, label %115, label %118

115:                                              ; preds = %112
  %116 = load ptr, ptr %7, align 8
  %117 = load i64, ptr %8, align 8
  call void @smart_str_realloc(ptr noundef %116, i64 noundef %117) #10
  br label %121

118:                                              ; preds = %112
  %119 = load ptr, ptr %7, align 8
  %120 = load i64, ptr %8, align 8
  call void @smart_str_erealloc(ptr noundef %119, i64 noundef %120) #10
  br label %121

121:                                              ; preds = %118, %115
  br label %122

122:                                              ; preds = %121, %99
  %123 = load i64, ptr %8, align 8
  store i64 %123, ptr %14, align 8
  %124 = load ptr, ptr %10, align 8
  %125 = load ptr, ptr %124, align 8
  %126 = getelementptr inbounds %struct._zend_string, ptr %125, i32 0, i32 3
  %127 = load ptr, ptr %10, align 8
  %128 = load ptr, ptr %127, align 8
  %129 = getelementptr inbounds %struct._zend_string, ptr %128, i32 0, i32 2
  %130 = load i64, ptr %129, align 8
  %131 = getelementptr inbounds i8, ptr %126, i64 %130
  %132 = load ptr, ptr %11, align 8
  %133 = load i64, ptr %12, align 8
  call void @llvm.memcpy.p0.p0.i64(ptr align 1 %131, ptr align 1 %132, i64 %133, i1 false)
  %134 = load i64, ptr %14, align 8
  %135 = load ptr, ptr %10, align 8
  %136 = load ptr, ptr %135, align 8
  %137 = getelementptr inbounds %struct._zend_string, ptr %136, i32 0, i32 2
  store i64 %134, ptr %137, align 8
  store ptr %28, ptr %20, align 8
  %138 = load ptr, ptr %20, align 8
  %139 = load ptr, ptr %138, align 8
  %140 = icmp ne ptr %139, null
  br i1 %140, label %141, label %150

141:                                              ; preds = %122
  %142 = load ptr, ptr %20, align 8
  %143 = load ptr, ptr %142, align 8
  %144 = getelementptr inbounds %struct._zend_string, ptr %143, i32 0, i32 3
  %145 = load ptr, ptr %20, align 8
  %146 = load ptr, ptr %145, align 8
  %147 = getelementptr inbounds %struct._zend_string, ptr %146, i32 0, i32 2
  %148 = load i64, ptr %147, align 8
  %149 = getelementptr inbounds [1 x i8], ptr %144, i64 0, i64 %148
  store i8 0, ptr %149, align 1
  br label %150

150:                                              ; preds = %141, %122
  %151 = getelementptr inbounds %struct.smart_str, ptr %28, i32 0, i32 0
  %152 = load ptr, ptr %151, align 8
  ret ptr %152
}