; Function Attrs: nounwind uwtable
define ptr @zend_ast_export(ptr nocapture noundef readonly %0, ptr noundef %1, ptr nocapture noundef readonly %2) local_unnamed_addr #0 {
  %4 = alloca %struct.smart_str, align 8
  call void @llvm.memset.p0.i64(ptr noundef nonnull align 8 dereferenceable(16) %4, i8 0, i64 16, i1 false)
  %5 = tail call i64 @strlen(ptr noundef nonnull dereferenceable(1) %0) #17
  call void @smart_str_erealloc(ptr noundef nonnull %4, i64 noundef %5) #14
  %6 = load ptr, ptr %4, align 8
  %7 = getelementptr inbounds i8, ptr %6, i64 24
  %8 = getelementptr inbounds i8, ptr %6, i64 16
  %9 = load i64, ptr %8, align 8
  %10 = getelementptr inbounds i8, ptr %7, i64 %9
  call void @llvm.memcpy.p0.p0.i64(ptr nonnull align 1 %10, ptr align 1 %0, i64 %5, i1 false)
  %11 = load ptr, ptr %4, align 8
  %12 = getelementptr inbounds i8, ptr %11, i64 16
  store i64 %5, ptr %12, align 8
  call fastcc void @zend_ast_export_ex(ptr noundef nonnull %4, ptr noundef %1, i32 noundef 0, i32 noundef 0)
  %13 = call i64 @strlen(ptr noundef nonnull dereferenceable(1) %2) #17
  %14 = load ptr, ptr %4, align 8
  %.not = icmp eq ptr %14, null
  br i1 %.not, label %21, label %15

15:                                               ; preds = %3
  %16 = getelementptr inbounds i8, ptr %14, i64 16
  %17 = load i64, ptr %16, align 8
  %18 = add i64 %17, %13
  %19 = getelementptr inbounds i8, ptr %4, i64 8
  %20 = load i64, ptr %19, align 8
  %.not58 = icmp ult i64 %18, %20
  br i1 %.not58, label %22, label %21

21:                                               ; preds = %3, %15
  %.051 = phi i64 [ %13, %3 ], [ %18, %15 ]
  call void @smart_str_erealloc(ptr noundef nonnull %4, i64 noundef %.051) #14
  %.pre = load ptr, ptr %4, align 8
  %.phi.trans.insert = getelementptr inbounds i8, ptr %.pre, i64 16
  %.pre60 = load i64, ptr %.phi.trans.insert, align 8
  br label %22

22:                                               ; preds = %21, %15
  %23 = phi i64 [ %.pre60, %21 ], [ %17, %15 ]
  %24 = phi ptr [ %.pre, %21 ], [ %14, %15 ]
  %.152 = phi i64 [ %.051, %21 ], [ %18, %15 ]
  %25 = getelementptr inbounds i8, ptr %24, i64 24
  %26 = getelementptr inbounds i8, ptr %25, i64 %23
  call void @llvm.memcpy.p0.p0.i64(ptr nonnull align 1 %26, ptr align 1 %2, i64 %13, i1 false)
  %27 = load ptr, ptr %4, align 8
  %28 = getelementptr inbounds i8, ptr %27, i64 16
  store i64 %.152, ptr %28, align 8
  %29 = getelementptr inbounds i8, ptr %27, i64 24
  %30 = getelementptr inbounds [1 x i8], ptr %29, i64 0, i64 %.152
  store i8 0, ptr %30, align 1
  %31 = load ptr, ptr %4, align 8
  ret ptr %31
}